; Function Attrs: nounwind uwtable
define range(i32 0, 2) i32 @Fraig_NodeIsMuxType(ptr noundef %0) local_unnamed_addr #0 {
  %2 = ptrtoint ptr %0 to i64
  %3 = and i64 %2, -2
  %4 = inttoptr i64 %3 to ptr
  %5 = tail call i32 @Fraig_NodeIsAnd(ptr noundef %4) #15
  %.not = icmp eq i32 %5, 0
  br i1 %.not, label %.thread, label %6

6:                                                ; preds = %1
  %7 = getelementptr inbounds nuw i8, ptr %4, i64 32
  %8 = load ptr, ptr %7, align 8
  %9 = tail call i32 @Fraig_NodeIsAnd(ptr noundef %8) #15
  %.not24 = icmp eq i32 %9, 0
  br i1 %.not24, label %.thread, label %10

10:                                               ; preds = %6
  %11 = load ptr, ptr %7, align 8
  %12 = ptrtoint ptr %11 to i64
  %13 = and i64 %12, 1
  %.not25 = icmp eq i64 %13, 0
  br i1 %.not25, label %.thread, label %14

14:                                               ; preds = %10
  %15 = getelementptr inbounds nuw i8, ptr %4, i64 40
  %16 = load ptr, ptr %15, align 8
  %17 = tail call i32 @Fraig_NodeIsAnd(ptr noundef %16) #15
  %.not26 = icmp eq i32 %17, 0
  br i1 %.not26, label %.thread, label %18

18:                                               ; preds = %14
  %19 = load ptr, ptr %15, align 8
  %20 = ptrtoint ptr %19 to i64
  %21 = and i64 %20, 1
  %.not27 = icmp eq i64 %21, 0
  br i1 %.not27, label %.thread, label %22

22:                                               ; preds = %18
  %23 = load ptr, ptr %7, align 8
  %24 = ptrtoint ptr %23 to i64
  %25 = and i64 %24, -2
  %26 = inttoptr i64 %25 to ptr
  %27 = and i64 %20, -2
  %28 = inttoptr i64 %27 to ptr
  %29 = getelementptr inbounds nuw i8, ptr %26, i64 32
  %30 = load ptr, ptr %29, align 8
  %31 = getelementptr inbounds nuw i8, ptr %28, i64 32
  %32 = load ptr, ptr %31, align 8
  %33 = ptrtoint ptr %32 to i64
  %34 = xor i64 %33, 1
  %35 = inttoptr i64 %34 to ptr
  %36 = icmp eq ptr %30, %35
  br i1 %36, label %.thread, label %37

37:                                               ; preds = %22
  %38 = getelementptr inbounds nuw i8, ptr %28, i64 40
  %39 = load ptr, ptr %38, align 8
  %40 = ptrtoint ptr %39 to i64
  %41 = xor i64 %40, 1
  %42 = inttoptr i64 %41 to ptr
  %43 = icmp eq ptr %30, %42
  br i1 %43, label %.thread, label %44

44:                                               ; preds = %37
  %45 = getelementptr inbounds nuw i8, ptr %26, i64 40
  %46 = load ptr, ptr %45, align 8
  %47 = icmp eq ptr %46, %35
  br i1 %47, label %.thread, label %48

48:                                               ; preds = %44
  %49 = icmp eq ptr %46, %42
  %50 = zext i1 %49 to i32
  br label %.thread

.thread:                                          ; preds = %22, %37, %44, %48, %14, %18, %6, %10, %1
  %.0 = phi i32 [ 0, %1 ], [ 0, %10 ], [ 0, %6 ], [ 0, %18 ], [ 0, %14 ], [ 1, %44 ], [ 1, %37 ], [ %50, %48 ], [ 1, %22 ]
  ret i32 %.0
}